; Function Attrs: nounwind uwtable
define i32 @av_buffersink_get_frame(ptr noundef readonly captures(none) %0, ptr noundef %1) local_unnamed_addr #0 {
  %3 = getelementptr inbounds nuw i8, ptr %0, i64 32
  %4 = load ptr, ptr %3, align 8, !tbaa !4
  %5 = load ptr, ptr %4, align 8, !tbaa !20
  %6 = getelementptr inbounds nuw i8, ptr %5, i64 224
  %7 = load i32, ptr %6, align 8, !tbaa !22
  %8 = tail call fastcc i32 @get_frame_internal(ptr noundef readonly %0, ptr noundef %1, i32 noundef 0, i32 noundef %7)
  ret i32 %8
}